; Function Attrs: nounwind uwtable
define ptr @l_Std_Internal_IO_Async_Waiter_race___rarg(ptr noundef %0, ptr noundef %1, ptr noundef %2, ptr noundef %3, ptr noundef %4) #0 {
  %6 = getelementptr inbounds nuw i8, ptr %0, i64 16
  %7 = load ptr, ptr %6, align 8, !tbaa !9
  %8 = ptrtoint ptr %7 to i64
  %9 = and i64 %8, 1
  %.not = icmp eq i64 %9, 0
  br i1 %.not, label %10, label %lean_inc.exit21

10:                                               ; preds = %5
  %.val.i = load i32, ptr %7, align 4, !tbaa !4
  %11 = icmp sgt i32 %.val.i, 0
  br i1 %11, label %12, label %14, !prof !11

12:                                               ; preds = %10
  %13 = add nuw i32 %.val.i, 1
  store i32 %13, ptr %7, align 4, !tbaa !4
  br label %lean_inc.exit21

14:                                               ; preds = %10
  %.not.i22 = icmp eq i32 %.val.i, 0
  br i1 %.not.i22, label %lean_inc.exit21, label %15

15:                                               ; preds = %14
  tail call void @lean_inc_ref_cold(ptr noundef nonnull %7) #5
  br label %lean_inc.exit21

lean_inc.exit21:                                  ; preds = %15, %14, %12, %5
  %16 = ptrtoint ptr %0 to i64
  %17 = and i64 %16, 1
  %.not27 = icmp eq i64 %17, 0
  br i1 %.not27, label %18, label %lean_dec.exit

18:                                               ; preds = %lean_inc.exit21
  %19 = load i32, ptr %0, align 4, !tbaa !4
  %20 = icmp sgt i32 %19, 1
  br i1 %20, label %21, label %23, !prof !11

21:                                               ; preds = %18
  %22 = add nsw i32 %19, -1
  store i32 %22, ptr %0, align 4, !tbaa !4
  br label %lean_dec.exit

23:                                               ; preds = %18
  %.not.i = icmp eq i32 %19, 0
  br i1 %.not.i, label %lean_dec.exit, label %24

24:                                               ; preds = %23
  tail call void @lean_dec_ref_cold(ptr noundef nonnull %0) #5
  br label %lean_dec.exit

lean_dec.exit:                                    ; preds = %24, %23, %21, %lean_inc.exit21
  %25 = getelementptr inbounds nuw i8, ptr %2, i64 8
  %26 = load ptr, ptr %25, align 8, !tbaa !9
  %27 = ptrtoint ptr %26 to i64
  %28 = and i64 %27, 1
  %.not28 = icmp eq i64 %28, 0
  br i1 %.not28, label %29, label %lean_inc.exit

29:                                               ; preds = %lean_dec.exit
  %.val.i23 = load i32, ptr %26, align 4, !tbaa !4
  %30 = icmp sgt i32 %.val.i23, 0
  br i1 %30, label %31, label %33, !prof !11

31:                                               ; preds = %29
  %32 = add nuw i32 %.val.i23, 1
  store i32 %32, ptr %26, align 4, !tbaa !4
  br label %lean_inc.exit

33:                                               ; preds = %29
  %.not.i24 = icmp eq i32 %.val.i23, 0
  br i1 %.not.i24, label %lean_inc.exit, label %34

34:                                               ; preds = %33
  tail call void @lean_inc_ref_cold(ptr noundef nonnull %26) #5
  br label %lean_inc.exit

lean_inc.exit:                                    ; preds = %34, %33, %31, %lean_dec.exit
  %35 = load ptr, ptr @l_Std_Internal_IO_Async_Waiter_race___rarg___closed__1, align 8, !tbaa !9
  tail call void @lean_inc_heartbeat() #5
  %36 = tail call noalias ptr @mi_malloc_small(i64 noundef 40) #5
  %37 = icmp eq ptr %36, null
  br i1 %37, label %38, label %lean_alloc_closure.exit

38:                                               ; preds = %lean_inc.exit
  tail call void @lean_internal_panic_out_of_memory() #6
  unreachable

lean_alloc_closure.exit:                          ; preds = %lean_inc.exit
  %39 = getelementptr inbounds nuw i8, ptr %36, i64 4
  store i32 1, ptr %36, align 4, !tbaa !4
  store i32 -184549336, ptr %39, align 4
  %40 = getelementptr inbounds nuw i8, ptr %36, i64 8
  store ptr @l_ST_Prim_Ref_modifyGetUnsafe___rarg___boxed, ptr %40, align 8, !tbaa !9
  %41 = getelementptr inbounds nuw i8, ptr %36, i64 16
  store i16 3, ptr %41, align 8, !tbaa !14
  %42 = getelementptr inbounds nuw i8, ptr %36, i64 18
  store i16 2, ptr %42, align 2, !tbaa !14
  %43 = getelementptr inbounds nuw i8, ptr %36, i64 24
  store ptr %26, ptr %43, align 8, !tbaa !9
  %44 = getelementptr inbounds nuw i8, ptr %36, i64 32
  store ptr %35, ptr %44, align 8, !tbaa !9
  %45 = tail call ptr @lean_apply_2(ptr noundef %1, ptr noundef nonnull inttoptr (i64 1 to ptr), ptr noundef nonnull %36) #5
  tail call void @lean_inc_heartbeat() #5
  %46 = tail call noalias ptr @mi_malloc_small(i64 noundef 48) #5
  %47 = icmp eq ptr %46, null
  br i1 %47, label %48, label %lean_alloc_closure.exit26

48:                                               ; preds = %lean_alloc_closure.exit
  tail call void @lean_internal_panic_out_of_memory() #6
  unreachable

lean_alloc_closure.exit26:                        ; preds = %lean_alloc_closure.exit
  %49 = getelementptr inbounds nuw i8, ptr %46, i64 4
  store i32 1, ptr %46, align 4, !tbaa !4
  store i32 -184549328, ptr %49, align 4
  %50 = getelementptr inbounds nuw i8, ptr %46, i64 8
  store ptr @l_Std_Internal_IO_Async_Waiter_race___rarg___lambda__2___boxed, ptr %50, align 8, !tbaa !9
  %51 = getelementptr inbounds nuw i8, ptr %46, i64 16
  store i16 4, ptr %51, align 8, !tbaa !14
  %52 = getelementptr inbounds nuw i8, ptr %46, i64 18
  store i16 3, ptr %52, align 2, !tbaa !14
  %53 = getelementptr inbounds nuw i8, ptr %46, i64 24
  store ptr %3, ptr %53, align 8, !tbaa !9
  %54 = getelementptr inbounds nuw i8, ptr %46, i64 32
  store ptr %2, ptr %54, align 8, !tbaa !9
  %55 = getelementptr inbounds nuw i8, ptr %46, i64 40
  store ptr %4, ptr %55, align 8, !tbaa !9
  %56 = tail call ptr @lean_apply_4(ptr noundef %7, ptr noundef nonnull inttoptr (i64 1 to ptr), ptr noundef nonnull inttoptr (i64 1 to ptr), ptr noundef %45, ptr noundef nonnull %46) #5
  ret ptr %56
}